target datalayout = "e-m:e-p270:32:32-p271:32:32-p272:64:64-i64:64-i128:128-f80:128-n8:16:32:64-S128"
target triple = "x86_64-pc-linux-gnu"

@__const._blend_Lab_scale.scale = private unnamed_addr constant [4 x float] [float 0x3F847AE140000000, float 7.812500e-03, float 7.812500e-03, float 1.000000e+00], align 16
@__const._blend_Lab_rescale.scale = private unnamed_addr constant [4 x float] [float 1.000000e+02, float 1.280000e+02, float 1.280000e+02, float 1.000000e+00], align 16

; Function Attrs: inlinehint nounwind uwtable
define internal void @_blend_Lab_rescale(ptr noundef %0, ptr noundef %1) #2 {
  %3 = alloca ptr, align 8
  %4 = alloca ptr, align 8
  %5 = alloca [4 x float], align 16
  %6 = alloca i64, align 8
  store ptr %0, ptr %3, align 8, !tbaa !11
  store ptr %1, ptr %4, align 8, !tbaa !11
  call void @llvm.lifetime.start.p0(i64 16, ptr %5) #8
  call void @llvm.memcpy.p0.p0.i64(ptr align 16 %5, ptr align 16 @__const._blend_Lab_rescale.scale, i64 16, i1 false)
  call void @llvm.lifetime.start.p0(i64 8, ptr %6) #8
  store i64 0, ptr %6, align 8, !tbaa !43
  br label %7

7:                                                ; preds = %23, %2
  %8 = load i64, ptr %6, align 8, !tbaa !43
  %9 = icmp ult i64 %8, 4
  br i1 %9, label %11, label %10

10:                                               ; preds = %7
  call void @llvm.lifetime.end.p0(i64 8, ptr %6) #8
  br label %26

11:                                               ; preds = %7
  %12 = load ptr, ptr %3, align 8, !tbaa !11
  %13 = load i64, ptr %6, align 8, !tbaa !43
  %14 = getelementptr inbounds nuw float, ptr %12, i64 %13
  %15 = load float, ptr %14, align 4, !tbaa !45
  %16 = load i64, ptr %6, align 8, !tbaa !43
  %17 = getelementptr inbounds nuw [4 x float], ptr %5, i64 0, i64 %16
  %18 = load float, ptr %17, align 4, !tbaa !45
  %19 = fmul reassoc nsz arcp contract afn float %15, %18
  %20 = load ptr, ptr %4, align 8, !tbaa !11
  %21 = load i64, ptr %6, align 8, !tbaa !43
  %22 = getelementptr inbounds nuw float, ptr %20, i64 %21
  store float %19, ptr %22, align 4, !tbaa !45
  br label %23

23:                                               ; preds = %11
  %24 = load i64, ptr %6, align 8, !tbaa !43
  %25 = add i64 %24, 1
  store i64 %25, ptr %6, align 8, !tbaa !43
  br label %7

26:                                               ; preds = %10
  call void @llvm.lifetime.end.p0(i64 16, ptr %5) #8
  ret void
}

; Function Attrs: inlinehint nounwind uwtable
define internal float @_CLAMP(float noundef %0, float noundef %1, float noundef %2) #2 {
  %4 = alloca float, align 4
  %5 = alloca float, align 4
  %6 = alloca float, align 4
  store float %0, ptr %4, align 4, !tbaa !45
  store float %1, ptr %5, align 4, !tbaa !45
  store float %2, ptr %6, align 4, !tbaa !45
  %7 = load float, ptr %4, align 4, !tbaa !45
  %8 = load float, ptr %5, align 4, !tbaa !45
  %9 = call reassoc nsz arcp contract afn float @llvm.maxnum.f32(float %7, float %8)
  %10 = load float, ptr %6, align 4, !tbaa !45
  %11 = call reassoc nsz arcp contract afn float @llvm.minnum.f32(float %9, float %10)
  ret float %11
}

; Function Attrs: inlinehint nounwind uwtable
define internal void @_blend_Lab_scale(ptr noundef %0, ptr noundef %1) #2 {
  %3 = alloca ptr, align 8
  %4 = alloca ptr, align 8
  %5 = alloca [4 x float], align 16
  %6 = alloca i64, align 8
  store ptr %0, ptr %3, align 8, !tbaa !11
  store ptr %1, ptr %4, align 8, !tbaa !11
  call void @llvm.lifetime.start.p0(i64 16, ptr %5) #8
  call void @llvm.memcpy.p0.p0.i64(ptr align 16 %5, ptr align 16 @__const._blend_Lab_scale.scale, i64 16, i1 false)
  call void @llvm.lifetime.start.p0(i64 8, ptr %6) #8
  store i64 0, ptr %6, align 8, !tbaa !43
  br label %7

7:                                                ; preds = %23, %2
  %8 = load i64, ptr %6, align 8, !tbaa !43
  %9 = icmp ult i64 %8, 4
  br i1 %9, label %11, label %10

10:                                               ; preds = %7
  call void @llvm.lifetime.end.p0(i64 8, ptr %6) #8
  br label %26

11:                                               ; preds = %7
  %12 = load ptr, ptr %3, align 8, !tbaa !11
  %13 = load i64, ptr %6, align 8, !tbaa !43
  %14 = getelementptr inbounds nuw float, ptr %12, i64 %13
  %15 = load float, ptr %14, align 4, !tbaa !45
  %16 = load i64, ptr %6, align 8, !tbaa !43
  %17 = getelementptr inbounds nuw [4 x float], ptr %5, i64 0, i64 %16
  %18 = load float, ptr %17, align 4, !tbaa !45
  %19 = fmul reassoc nsz arcp contract afn float %15, %18
  %20 = load ptr, ptr %4, align 8, !tbaa !11
  %21 = load i64, ptr %6, align 8, !tbaa !43
  %22 = getelementptr inbounds nuw float, ptr %20, i64 %21
  store float %19, ptr %22, align 4, !tbaa !45
  br label %23

23:                                               ; preds = %11
  %24 = load i64, ptr %6, align 8, !tbaa !43
  %25 = add i64 %24, 1
  store i64 %25, ptr %6, align 8, !tbaa !43
  br label %7

26:                                               ; preds = %10
  call void @llvm.lifetime.end.p0(i64 16, ptr %5) #8
  ret void
}

; Function Attrs: nounwind uwtable
define internal void @_blend_screen(ptr noundef %0, ptr noundef %1, ptr noundef %2, ptr noalias noundef %3, i64 noundef %4, ptr noundef %5, ptr noundef %6) #0 {
  %8 = alloca ptr, align 8
  %9 = alloca ptr, align 8
  %10 = alloca ptr, align 8
  %11 = alloca ptr, align 8
  %12 = alloca i64, align 8
  %13 = alloca ptr, align 8
  %14 = alloca ptr, align 8
  %15 = alloca i64, align 8
  %16 = alloca i64, align 8
  %17 = alloca float, align 4
  %18 = alloca [4 x float], align 16
  %19 = alloca [4 x float], align 16
  %20 = alloca float, align 4
  %21 = alloca float, align 4
  %22 = alloca float, align 4
  %23 = alloca float, align 4
  %24 = alloca float, align 4
  store ptr %0, ptr %8, align 8, !tbaa !11
  store ptr %1, ptr %9, align 8, !tbaa !11
  store ptr %2, ptr %10, align 8, !tbaa !11
  store ptr %3, ptr %11, align 8, !tbaa !11
  store i64 %4, ptr %12, align 8, !tbaa !43
  store ptr %5, ptr %13, align 8, !tbaa !11
  store ptr %6, ptr %14, align 8, !tbaa !11
  call void @llvm.lifetime.start.p0(i64 8, ptr %15) #8
  store i64 0, ptr %15, align 8, !tbaa !43
  call void @llvm.lifetime.start.p0(i64 8, ptr %16) #8
  store i64 0, ptr %16, align 8, !tbaa !43
  br label %25

25:                                               ; preds = %159, %7
  %26 = load i64, ptr %15, align 8, !tbaa !43
  %27 = load i64, ptr %12, align 8, !tbaa !43
  %28 = icmp ult i64 %26, %27
  br i1 %28, label %30, label %29

29:                                               ; preds = %25
  call void @llvm.lifetime.end.p0(i64 8, ptr %16) #8
  call void @llvm.lifetime.end.p0(i64 8, ptr %15) #8
  br label %164

30:                                               ; preds = %25
  call void @llvm.lifetime.start.p0(i64 4, ptr %17) #8
  %31 = load ptr, ptr %11, align 8, !tbaa !11
  %32 = load i64, ptr %15, align 8, !tbaa !43
  %33 = getelementptr inbounds nuw float, ptr %31, i64 %32
  %34 = load float, ptr %33, align 4, !tbaa !45
  store float %34, ptr %17, align 4, !tbaa !45
  call void @llvm.lifetime.start.p0(i64 16, ptr %18) #8
  call void @llvm.lifetime.start.p0(i64 16, ptr %19) #8
  %35 = load ptr, ptr %8, align 8, !tbaa !11
  %36 = load i64, ptr %16, align 8, !tbaa !43
  %37 = getelementptr inbounds nuw float, ptr %35, i64 %36
  %38 = getelementptr inbounds [4 x float], ptr %18, i64 0, i64 0
  call void @_blend_Lab_scale(ptr noundef %37, ptr noundef %38)
  %39 = load ptr, ptr %9, align 8, !tbaa !11
  %40 = load i64, ptr %16, align 8, !tbaa !43
  %41 = getelementptr inbounds nuw float, ptr %39, i64 %40
  %42 = getelementptr inbounds [4 x float], ptr %19, i64 0, i64 0
  call void @_blend_Lab_scale(ptr noundef %41, ptr noundef %42)
  call void @llvm.lifetime.start.p0(i64 4, ptr %20) #8
  store float 0.000000e+00, ptr %20, align 4, !tbaa !45
  call void @llvm.lifetime.start.p0(i64 4, ptr %21) #8
  %43 = load ptr, ptr %14, align 8, !tbaa !11
  %44 = getelementptr inbounds float, ptr %43, i64 0
  %45 = load float, ptr %44, align 4, !tbaa !45
  %46 = load ptr, ptr %13, align 8, !tbaa !11
  %47 = getelementptr inbounds float, ptr %46, i64 0
  %48 = load float, ptr %47, align 4, !tbaa !45
  %49 = call reassoc nsz arcp contract afn float @llvm.fabs.f32(float %48)
  %50 = fadd reassoc nsz arcp contract afn float %45, %49
  store float %50, ptr %21, align 4, !tbaa !45
  call void @llvm.lifetime.start.p0(i64 4, ptr %22) #8
  %51 = getelementptr inbounds [4 x float], ptr %18, i64 0, i64 0
  %52 = load float, ptr %51, align 16, !tbaa !45
  %53 = load ptr, ptr %13, align 8, !tbaa !11
  %54 = getelementptr inbounds float, ptr %53, i64 0
  %55 = load float, ptr %54, align 4, !tbaa !45
  %56 = call reassoc nsz arcp contract afn float @llvm.fabs.f32(float %55)
  %57 = fadd reassoc nsz arcp contract afn float %52, %56
  %58 = load float, ptr %21, align 4, !tbaa !45
  %59 = call reassoc nsz arcp contract afn float @_CLAMP(float noundef %57, float noundef 0.000000e+00, float noundef %58)
  store float %59, ptr %22, align 4, !tbaa !45
  call void @llvm.lifetime.start.p0(i64 4, ptr %23) #8
  %60 = getelementptr inbounds [4 x float], ptr %19, i64 0, i64 0
  %61 = load float, ptr %60, align 16, !tbaa !45
  %62 = load ptr, ptr %13, align 8, !tbaa !11
  %63 = getelementptr inbounds float, ptr %62, i64 0
  %64 = load float, ptr %63, align 4, !tbaa !45
  %65 = call reassoc nsz arcp contract afn float @llvm.fabs.f32(float %64)
  %66 = fadd reassoc nsz arcp contract afn float %61, %65
  %67 = load float, ptr %21, align 4, !tbaa !45
  %68 = call reassoc nsz arcp contract afn float @_CLAMP(float noundef %66, float noundef 0.000000e+00, float noundef %67)
  store float %68, ptr %23, align 4, !tbaa !45
  %69 = load float, ptr %22, align 4, !tbaa !45
  %70 = load float, ptr %17, align 4, !tbaa !45
  %71 = fsub reassoc nsz arcp contract afn float 1.000000e+00, %70
  %72 = fmul reassoc nsz arcp contract afn float %69, %71
  %73 = load float, ptr %21, align 4, !tbaa !45
  %74 = load float, ptr %21, align 4, !tbaa !45
  %75 = load float, ptr %22, align 4, !tbaa !45
  %76 = fsub reassoc nsz arcp contract afn float %74, %75
  %77 = load float, ptr %21, align 4, !tbaa !45
  %78 = load float, ptr %23, align 4, !tbaa !45
  %79 = fsub reassoc nsz arcp contract afn float %77, %78
  %80 = fmul reassoc nsz arcp contract afn float %76, %79
  %81 = fsub reassoc nsz arcp contract afn float %73, %80
  %82 = load float, ptr %17, align 4, !tbaa !45
  %83 = fmul reassoc nsz arcp contract afn float %81, %82
  %84 = fadd reassoc nsz arcp contract afn float %72, %83
  %85 = load float, ptr %21, align 4, !tbaa !45
  %86 = call reassoc nsz arcp contract afn float @_CLAMP(float noundef %84, float noundef 0.000000e+00, float noundef %85)
  %87 = load ptr, ptr %13, align 8, !tbaa !11
  %88 = getelementptr inbounds float, ptr %87, i64 0
  %89 = load float, ptr %88, align 4, !tbaa !45
  %90 = call reassoc nsz arcp contract afn float @llvm.fabs.f32(float %89)
  %91 = fsub reassoc nsz arcp contract afn float %86, %90
  %92 = getelementptr inbounds [4 x float], ptr %19, i64 0, i64 0
  store float %91, ptr %92, align 16, !tbaa !45
  call void @llvm.lifetime.start.p0(i64 4, ptr %24) #8
  %93 = getelementptr inbounds [4 x float], ptr %18, i64 0, i64 0
  %94 = load float, ptr %93, align 16, !tbaa !45
  %95 = call reassoc nsz arcp contract afn float @llvm.maxnum.f32(float %94, float 0x3F847AE140000000)
  store float %95, ptr %24, align 4, !tbaa !45
  %96 = getelementptr inbounds [4 x float], ptr %18, i64 0, i64 1
  %97 = load float, ptr %96, align 4, !tbaa !45
  %98 = load float, ptr %17, align 4, !tbaa !45
  %99 = fsub reassoc nsz arcp contract afn float 1.000000e+00, %98
  %100 = fmul reassoc nsz arcp contract afn float %97, %99
  %101 = getelementptr inbounds [4 x float], ptr %18, i64 0, i64 1
  %102 = load float, ptr %101, align 4, !tbaa !45
  %103 = getelementptr inbounds [4 x float], ptr %19, i64 0, i64 1
  %104 = load float, ptr %103, align 4, !tbaa !45
  %105 = fadd reassoc nsz arcp contract afn float %102, %104
  %106 = fmul reassoc nsz arcp contract afn float 5.000000e-01, %105
  %107 = getelementptr inbounds [4 x float], ptr %19, i64 0, i64 0
  %108 = load float, ptr %107, align 16, !tbaa !45
  %109 = fmul reassoc nsz arcp contract afn float %106, %108
  %110 = load float, ptr %24, align 4, !tbaa !45
  %111 = fdiv reassoc nsz arcp contract afn float %109, %110
  %112 = load float, ptr %17, align 4, !tbaa !45
  %113 = fmul reassoc nsz arcp contract afn float %111, %112
  %114 = fadd reassoc nsz arcp contract afn float %100, %113
  %115 = load ptr, ptr %13, align 8, !tbaa !11
  %116 = getelementptr inbounds float, ptr %115, i64 1
  %117 = load float, ptr %116, align 4, !tbaa !45
  %118 = load ptr, ptr %14, align 8, !tbaa !11
  %119 = getelementptr inbounds float, ptr %118, i64 1
  %120 = load float, ptr %119, align 4, !tbaa !45
  %121 = call reassoc nsz arcp contract afn float @_CLAMP(float noundef %114, float noundef %117, float noundef %120)
  %122 = getelementptr inbounds [4 x float], ptr %19, i64 0, i64 1
  store float %121, ptr %122, align 4, !tbaa !45
  %123 = getelementptr inbounds [4 x float], ptr %18, i64 0, i64 2
  %124 = load float, ptr %123, align 8, !tbaa !45
  %125 = load float, ptr %17, align 4, !tbaa !45
  %126 = fsub reassoc nsz arcp contract afn float 1.000000e+00, %125
  %127 = fmul reassoc nsz arcp contract afn float %124, %126
  %128 = getelementptr inbounds [4 x float], ptr %18, i64 0, i64 2
  %129 = load float, ptr %128, align 8, !tbaa !45
  %130 = getelementptr inbounds [4 x float], ptr %19, i64 0, i64 2
  %131 = load float, ptr %130, align 8, !tbaa !45
  %132 = fadd reassoc nsz arcp contract afn float %129, %131
  %133 = fmul reassoc nsz arcp contract afn float 5.000000e-01, %132
  %134 = getelementptr inbounds [4 x float], ptr %19, i64 0, i64 0
  %135 = load float, ptr %134, align 16, !tbaa !45
  %136 = fmul reassoc nsz arcp contract afn float %133, %135
  %137 = load float, ptr %24, align 4, !tbaa !45
  %138 = fdiv reassoc nsz arcp contract afn float %136, %137
  %139 = load float, ptr %17, align 4, !tbaa !45
  %140 = fmul reassoc nsz arcp contract afn float %138, %139
  %141 = fadd reassoc nsz arcp contract afn float %127, %140
  %142 = load ptr, ptr %13, align 8, !tbaa !11
  %143 = getelementptr inbounds float, ptr %142, i64 2
  %144 = load float, ptr %143, align 4, !tbaa !45
  %145 = load ptr, ptr %14, align 8, !tbaa !11
  %146 = getelementptr inbounds float, ptr %145, i64 2
  %147 = load float, ptr %146, align 4, !tbaa !45
  %148 = call reassoc nsz arcp contract afn float @_CLAMP(float noundef %141, float noundef %144, float noundef %147)
  %149 = getelementptr inbounds [4 x float], ptr %19, i64 0, i64 2
  store float %148, ptr %149, align 8, !tbaa !45
  %150 = getelementptr inbounds [4 x float], ptr %19, i64 0, i64 0
  %151 = load ptr, ptr %10, align 8, !tbaa !11
  %152 = load i64, ptr %16, align 8, !tbaa !43
  %153 = getelementptr inbounds nuw float, ptr %151, i64 %152
  call void @_blend_Lab_rescale(ptr noundef %150, ptr noundef %153)
  %154 = load float, ptr %17, align 4, !tbaa !45
  %155 = load ptr, ptr %10, align 8, !tbaa !11
  %156 = load i64, ptr %16, align 8, !tbaa !43
  %157 = add i64 %156, 3
  %158 = getelementptr inbounds nuw float, ptr %155, i64 %157
  store float %154, ptr %158, align 4, !tbaa !45
  call void @llvm.lifetime.end.p0(i64 4, ptr %24) #8
  call void @llvm.lifetime.end.p0(i64 4, ptr %23) #8
  call void @llvm.lifetime.end.p0(i64 4, ptr %22) #8
  call void @llvm.lifetime.end.p0(i64 4, ptr %21) #8
  call void @llvm.lifetime.end.p0(i64 4, ptr %20) #8
  call void @llvm.lifetime.end.p0(i64 16, ptr %19) #8
  call void @llvm.lifetime.end.p0(i64 16, ptr %18) #8
  call void @llvm.lifetime.end.p0(i64 4, ptr %17) #8
  br label %159

159:                                              ; preds = %30
  %160 = load i64, ptr %15, align 8, !tbaa !43
  %161 = add i64 %160, 1
  store i64 %161, ptr %15, align 8, !tbaa !43
  %162 = load i64, ptr %16, align 8, !tbaa !43
  %163 = add i64 %162, 4
  store i64 %163, ptr %16, align 8, !tbaa !43
  br label %25

164:                                              ; preds = %29
  ret void
}