; Function Attrs: nofree norecurse nosync nounwind memory(argmem: readwrite) uwtable
define internal void @_blend_screen(ptr noundef readonly captures(none) %0, ptr noundef readonly captures(none) %1, ptr noundef writeonly captures(none) %2, ptr noalias noundef readonly captures(none) %3, i64 noundef %4, ptr noundef readonly captures(none) %5, ptr noundef readonly captures(none) %6) unnamed_addr #11 {
  %8 = alloca [4 x float], align 16
  %9 = alloca [4 x float], align 16
  %.not = icmp eq i64 %4, 0
  br i1 %.not, label %._crit_edge, label %.lr.ph

.lr.ph:                                           ; preds = %7
  %10 = getelementptr inbounds nuw i8, ptr %8, i64 4
  %11 = getelementptr inbounds nuw i8, ptr %9, i64 4
  %12 = getelementptr inbounds nuw i8, ptr %5, i64 4
  %13 = getelementptr inbounds nuw i8, ptr %6, i64 4
  %14 = getelementptr inbounds nuw i8, ptr %8, i64 8
  %15 = getelementptr inbounds nuw i8, ptr %9, i64 8
  %16 = getelementptr inbounds nuw i8, ptr %5, i64 8
  %17 = getelementptr inbounds nuw i8, ptr %6, i64 8
  br label %18

._crit_edge:                                      ; preds = %_blend_Lab_rescale.exit, %7
  ret void

18:                                               ; preds = %.lr.ph, %_blend_Lab_rescale.exit
  %.047 = phi i64 [ 0, %.lr.ph ], [ %99, %_blend_Lab_rescale.exit ]
  %.04046 = phi i64 [ 0, %.lr.ph ], [ %100, %_blend_Lab_rescale.exit ]
  %19 = getelementptr inbounds nuw float, ptr %3, i64 %.047
  %20 = load float, ptr %19, align 4, !tbaa !36
  call void @llvm.lifetime.start.p0(i64 16, ptr nonnull %8) #8
  call void @llvm.lifetime.start.p0(i64 16, ptr nonnull %9) #8
  %21 = getelementptr inbounds nuw float, ptr %0, i64 %.04046
  br label %22

22:                                               ; preds = %22, %18
  %.06.i = phi i64 [ 0, %18 ], [ %29, %22 ]
  %23 = getelementptr inbounds nuw float, ptr %21, i64 %.06.i
  %24 = load float, ptr %23, align 4, !tbaa !36
  %25 = getelementptr inbounds nuw [4 x float], ptr @__const._blend_Lab_scale.scale, i64 0, i64 %.06.i
  %26 = load float, ptr %25, align 4, !tbaa !36
  %27 = fmul reassoc nsz arcp contract afn float %26, %24
  %28 = getelementptr inbounds nuw float, ptr %8, i64 %.06.i
  store float %27, ptr %28, align 4, !tbaa !36
  %29 = add nuw nsw i64 %.06.i, 1
  %exitcond.not.i = icmp eq i64 %29, 4
  br i1 %exitcond.not.i, label %_blend_Lab_scale.exit, label %22

_blend_Lab_scale.exit:                            ; preds = %22
  %30 = getelementptr inbounds nuw float, ptr %1, i64 %.04046
  br label %31

31:                                               ; preds = %31, %_blend_Lab_scale.exit
  %.06.i41 = phi i64 [ 0, %_blend_Lab_scale.exit ], [ %38, %31 ]
  %32 = getelementptr inbounds nuw float, ptr %30, i64 %.06.i41
  %33 = load float, ptr %32, align 4, !tbaa !36
  %34 = getelementptr inbounds nuw [4 x float], ptr @__const._blend_Lab_scale.scale, i64 0, i64 %.06.i41
  %35 = load float, ptr %34, align 4, !tbaa !36
  %36 = fmul reassoc nsz arcp contract afn float %35, %33
  %37 = getelementptr inbounds nuw float, ptr %9, i64 %.06.i41
  store float %36, ptr %37, align 4, !tbaa !36
  %38 = add nuw nsw i64 %.06.i41, 1
  %exitcond.not.i42 = icmp eq i64 %38, 4
  br i1 %exitcond.not.i42, label %_blend_Lab_scale.exit43, label %31

_blend_Lab_scale.exit43:                          ; preds = %31
  %39 = load float, ptr %6, align 4, !tbaa !36
  %40 = load float, ptr %5, align 4, !tbaa !36
  %41 = tail call reassoc nsz arcp contract afn float @llvm.fabs.f32(float %40)
  %42 = fadd reassoc nsz arcp contract afn float %41, %39
  %43 = load float, ptr %8, align 16, !tbaa !36
  %44 = fadd reassoc nsz arcp contract afn float %43, %41
  %45 = tail call reassoc nsz arcp contract afn float @llvm.maxnum.f32(float %44, float 0.000000e+00)
  %46 = tail call reassoc nsz arcp contract afn noundef float @llvm.minnum.f32(float %45, float %42)
  %47 = load float, ptr %9, align 16, !tbaa !36
  %48 = fadd reassoc nsz arcp contract afn float %47, %41
  %49 = tail call reassoc nsz arcp contract afn float @llvm.maxnum.f32(float %48, float 0.000000e+00)
  %50 = tail call reassoc nsz arcp contract afn noundef float @llvm.minnum.f32(float %49, float %42)
  %51 = fsub reassoc nsz arcp contract afn float 1.000000e+00, %20
  %52 = fmul reassoc nsz arcp contract afn float %46, %51
  %53 = fsub reassoc nsz arcp contract afn float %42, %46
  %54 = fsub reassoc nsz arcp contract afn float %42, %50
  %55 = fmul reassoc nsz arcp contract afn float %54, %53
  %56 = fsub reassoc nsz arcp contract afn float %42, %55
  %57 = fmul reassoc nsz arcp contract afn float %56, %20
  %58 = fadd reassoc nsz arcp contract afn float %57, %52
  %59 = tail call reassoc nsz arcp contract afn float @llvm.maxnum.f32(float %58, float 0.000000e+00)
  %60 = tail call reassoc nsz arcp contract afn noundef float @llvm.minnum.f32(float %59, float %42)
  %61 = fsub reassoc nsz arcp contract afn float %60, %41
  store float %61, ptr %9, align 16, !tbaa !36
  %62 = tail call reassoc nsz arcp contract afn float @llvm.maxnum.f32(float %43, float 0x3F847AE140000000)
  %63 = load float, ptr %10, align 4, !tbaa !36
  %64 = fmul reassoc nsz arcp contract afn float %63, %51
  %65 = load float, ptr %11, align 4, !tbaa !36
  %66 = fadd reassoc nsz arcp contract afn float %65, %63
  %67 = fmul reassoc nsz arcp contract afn float %20, 5.000000e-01
  %68 = fmul reassoc nsz arcp contract afn float %67, %66
  %69 = fmul reassoc nsz arcp contract afn float %68, %61
  %70 = fdiv reassoc nsz arcp contract afn float %69, %62
  %71 = fadd reassoc nsz arcp contract afn float %70, %64
  %72 = load float, ptr %12, align 4, !tbaa !36
  %73 = load float, ptr %13, align 4, !tbaa !36
  %74 = tail call reassoc nsz arcp contract afn float @llvm.maxnum.f32(float %71, float %72)
  %75 = tail call reassoc nsz arcp contract afn noundef float @llvm.minnum.f32(float %74, float %73)
  store float %75, ptr %11, align 4, !tbaa !36
  %76 = load float, ptr %14, align 8, !tbaa !36
  %77 = fmul reassoc nsz arcp contract afn float %76, %51
  %78 = load float, ptr %15, align 8, !tbaa !36
  %79 = fadd reassoc nsz arcp contract afn float %78, %76
  %80 = fmul reassoc nsz arcp contract afn float %67, %79
  %81 = fmul reassoc nsz arcp contract afn float %80, %61
  %82 = fdiv reassoc nsz arcp contract afn float %81, %62
  %83 = fadd reassoc nsz arcp contract afn float %82, %77
  %84 = load float, ptr %16, align 4, !tbaa !36
  %85 = load float, ptr %17, align 4, !tbaa !36
  %86 = tail call reassoc nsz arcp contract afn float @llvm.maxnum.f32(float %83, float %84)
  %87 = tail call reassoc nsz arcp contract afn noundef float @llvm.minnum.f32(float %86, float %85)
  store float %87, ptr %15, align 8, !tbaa !36
  %88 = getelementptr inbounds nuw float, ptr %2, i64 %.04046
  br label %89

89:                                               ; preds = %89, %_blend_Lab_scale.exit43
  %.06.i44 = phi i64 [ 0, %_blend_Lab_scale.exit43 ], [ %96, %89 ]
  %90 = getelementptr inbounds nuw float, ptr %9, i64 %.06.i44
  %91 = load float, ptr %90, align 4, !tbaa !36
  %92 = getelementptr inbounds nuw [4 x float], ptr @__const._blend_Lab_rescale.scale, i64 0, i64 %.06.i44
  %93 = load float, ptr %92, align 4, !tbaa !36
  %94 = fmul reassoc nsz arcp contract afn float %93, %91
  %95 = getelementptr inbounds nuw float, ptr %88, i64 %.06.i44
  store float %94, ptr %95, align 4, !tbaa !36
  %96 = add nuw nsw i64 %.06.i44, 1
  %exitcond.not.i45 = icmp eq i64 %96, 4
  br i1 %exitcond.not.i45, label %_blend_Lab_rescale.exit, label %89

_blend_Lab_rescale.exit:                          ; preds = %89
  %97 = or disjoint i64 %.04046, 3
  %98 = getelementptr inbounds nuw float, ptr %2, i64 %97
  store float %20, ptr %98, align 4, !tbaa !36
  call void @llvm.lifetime.end.p0(i64 16, ptr nonnull %9) #8
  call void @llvm.lifetime.end.p0(i64 16, ptr nonnull %8) #8
  %99 = add nuw i64 %.047, 1
  %100 = add i64 %.04046, 4
  %exitcond.not = icmp eq i64 %99, %4
  br i1 %exitcond.not, label %._crit_edge, label %18
}